(dp1
S'Bhyb009'
p2
S'Bhyb36D'
p3
sS'Bhyb003'
p4
S'Bd28D'
p5
sS'Bhyb001'
p6
S'ABR113D'
p7
sS'Bdist648'
p8
S'Geo-G31i4'
p9
sS'Bdist649'
p10
S'BdTR13B'
p11
sS'Bdist333'
p12
S'ABR9_r'
p13
sS'Bdist334'
p14
S'BdTR13a'
p15
sS'Bdist336'
p16
S'ABR6_r'
p17
sS'Bdist337'
p18
S'ABR2'
p19
sS'Bdist338'
p20
S'Bis-1'
p21
sS'Bdist647'
p22
S'Spa-Nor-S11B-2'
p23
sS'Bdist659'
p24
S'Adi-9'
p25
sS'Bdist658'
p26
S'BdTR12B'
p27
sS'Bdist327'
p28
S'Uni2'
p29
sS'Bdist326'
p30
S'Per1'
p31
sS'Bdist653'
p32
S'Arm-Arm3i'
p33
sS'Bdist652'
p34
S'Geo-G33i4'
p35
sS'Bdist651'
p36
S'BdTR3M'
p37
sS'Bdist650'
p38
S'Koz-5'
p39
sS'Bdist657'
p40
S'Geo-G34i2'
p41
sS'Bdist656'
p42
S'Spa-Sou-GR6.4'
p43
sS'Bdist655'
p44
S'Spa-Sou-Sg2.1.1'
p45
sS'Bdist654'
p46
S'BdTR13N'
p47
sS'Bdist460'
p48
S'Bd21-3_r'
p49
sS'Bdist705'
p50
S'BdTR10D'
p51
sS'Bdist704'
p52
S'Spa-Nor-S11D-2'
p53
sS'Bdist707'
p54
S'Spa-Sou-Z3.6'
p55
sS'Bdist706'
p56
S'Spa-Nor-S6B-3'
p57
sS'Bdist701'
p58
S'Koz-2'
p59
sS'Bdist700'
p60
S'Ukr-Nvk1'
p61
sS'Bdist703'
p62
S'Adi-15'
p63
sS'Bdist702'
p64
S'Spa-Nor-S19A'
p65
sS'Bdist668'
p66
S'Vasc1'
p67
sS'Bdist666'
p68
S'BdTR9M'
p69
sS'Bdist667'
p70
S'Spa-Sou-CU5.5'
p71
sS'Bdist664'
p72
S'Kah-6'
p73
sS'Bdist665'
p74
S'Arm-Arm2B'
p75
sS'Bdist662'
p76
S'Arm-Arm3G'
p77
sS'Bdist663'
p78
S'Geo-G32i2'
p79
sS'Bdist660'
p80
S'Geo-G34i6'
p81
sS'Bdist661'
p82
S'Arm-Arm3A'
p83
sS'Bdist329'
p84
S'BdTR7a'
p85
sS'Bdist671'
p86
S'Alb-AL2D'
p87
sS'Bdist670'
p88
S'Spa-Sou-CU1.6-1'
p89
sS'Bdist672'
p90
S'Spa-Sou-J6.2'
p91
sS'Bdist675'
p92
S'Spa-SouGR3.6-5'
p93
sS'Bdist674'
p94
S'Spa-Nor-S22C.1'
p95
sS'Bdist677'
p96
S'Spa-GU5-1'
p97
sS'Bdist676'
p98
S'Spa-Nor-S16D'
p99
sS'Bdist679'
p100
S'Ita-Sic-SLZ2.1'
p101
sS'Bdist678'
p102
S'Gaz-1'
p103
sS'Bdist688'
p104
S'Spa-Sou-HU3.4'
p105
sS'Bdist689'
p106
S'Spa-Nor-S6D-5'
p107
sS'Bdist684'
p108
S'Geo-G33i6'
p109
sS'Bdist685'
p110
S'Spa-Sou-AB1.4-2'
p111
sS'Bdist686'
p112
S'Ita-Sic-LPA3.2'
p113
sS'Bdist687'
p114
S'Spa-Sou-J4.3.1'
p115
sS'Bdist680'
p116
S'Tek-9'
p117
sS'Bdist682'
p118
S'Spa-Nor-S6E'
p119
sS'Bdist683'
p120
S'Ita-Sic-CSR-6'
p121
sS'Bdist330'
p122
S'Koz-1'
p123
sS'Bdist379'
p124
S'ABR5'
p125
sS'Bdist375'
p126
S'Jer1'
p127
sS'Bdist376'
p128
S'BdTR2B'
p129
sS'Bdist377'
p130
S'Mig3'
p131
sS'Bdist371'
p132
S'Sig2'
p133
sS'Bdist372'
p134
S'Adi-2'
p135
sS'Bdist373'
p136
S'Mur1'
p137
sS'Bhyb011'
p138
S'Bhyb30D'
p139
sS'Bdist699'
p140
S'Gaz-7'
p141
sS'Bdist698'
p142
S'Ita-Sic-BNT8'
p143
sS'Bdist697'
p144
S'Spa-Sou-AB3.3'
p145
sS'Bdist696'
p146
S'Spa-Nor-S17D-1'
p147
sS'Bdist695'
p148
S'Ita-Sic-BNT3'
p149
sS'Bdist694'
p150
S'Ita-Sic-BNT4.1'
p151
sS'Bdist693'
p152
S'Gaz-2'
p153
sS'Bdist692'
p154
S'Alb-AL2E'
p155
sS'Bdist691'
p156
S'Alb-AL2F'
p157
sS'Bdist690'
p158
S'Geo-G30i2'
p159
sS'Bdist369'
p160
S'ABR7'
p161
sS'Bdist368'
p162
S'Koz-3'
p163
sS'Bdist366'
p164
S'Foz1'
p165
sS'Bdist365'
p166
S'BdTR13C'
p167
sS'Bdist364'
p168
S'ABR4'
p169
sS'Bdist363'
p170
S'BdTR11I'
p171
sS'Bdist362'
p172
S'Bd18-1'
p173
sS'Bdist361'
p174
S'Bd21Control'
p175
sS'Bdist360'
p176
S'RON2'
p177
sS'Bdist352'
p178
S'BdTR12c'
p179
sS'Bdist353'
p180
S'Bd2-3'
p181
sS'Bdist350'
p182
S'Mon3'
p183
sS'Bdist357'
p184
S'BdTR11G'
p185
sS'Bdist354'
p186
S'BdTR3C'
p187
sS'Bdist355'
p188
S'Arn1'
p189
sS'Bdist359'
p190
S'Adi-12'
p191
sS'Bdist345'
p192
S'BdTR1i'
p193
sS'Bdist344'
p194
S'Bd30-1'
p195
sS'Bdist347'
p196
S'Luc1'
p197
sS'Bdist341'
p198
S'Tek-2'
p199
sS'Bdist340'
p200
S'S8iiC'
p201
sS'Bdist343'
p202
S'ABR3'
p203
sS'Bdist342'
p204
S'Kah-5'
p205
sS'Bdist349'
p206
S'Bd1-1'
p207
sS'Bdist348'
p208
S'BdTR8i'
p209
s.